target datalayout = "e-m:e-p270:32:32-p271:32:32-p272:64:64-i64:64-i128:128-f80:128-n8:16:32:64-S128"
target triple = "x86_64-pc-linux-gnu"

%struct.jit_State = type { %struct.GCtrace, ptr, ptr, ptr, ptr, ptr, ptr, i32, i32, i32, i8, i8, %struct.IRType1, i8, %struct.FoldState, ptr, i32, i32, i32, i32, i32, i32, i32, [1 x i32], [5 x %union.TValue], [3 x %union.TValue], ptr, i32, i32, i32, i32, ptr, ptr, i32, i32, i8, ptr, i32, i32, i16, [101 x i16], [258 x i32], [15 x i32], [16 x ptr], [64 x %struct.HotPenalty], i32, [16 x %struct.BPropEntry], i32, %struct.ScEvEntry, ptr, i32, i32, i32, ptr, i32, i32, ptr, ptr, ptr, i64, i64, %union.TValue, ptr, i32, i32 }
%struct.GCtrace = type { %struct.GCRef, i8, i8, i16, i32, i32, %struct.GCRef, ptr, i32, i32, ptr, ptr, %struct.GCRef, %struct.MRef, i32, i32, ptr, i32, i16, i16, i16, i16, i16, i16, i16, i8, i8, i8, i8 }
%struct.GCRef = type { i64 }
%struct.MRef = type { i64 }
%struct.IRType1 = type { i8 }
%struct.FoldState = type { %union.IRIns, [2 x %union.IRIns], [2 x %union.IRIns] }
%union.IRIns = type { %struct.GCRef }
%struct.HotPenalty = type { %struct.MRef, i16, i16 }
%struct.BPropEntry = type { i16, i16, i32 }
%struct.ScEvEntry = type { %struct.MRef, i16, i16, i16, i16, %struct.IRType1, i8 }
%union.TValue = type { i64 }
%struct.anon.0 = type { i32, %struct.IRType1, i8, i8, i8 }
%struct.anon = type { i16, i16, i16, i16 }

; Function Attrs: alwaysinline nounwind uwtable
define internal i32 @ir_nextk(ptr noundef %0) #5 {
  %2 = alloca ptr, align 8
  %3 = alloca i32, align 4
  store ptr %0, ptr %2, align 8, !tbaa !4
  call void @llvm.lifetime.start.p0(i64 4, ptr %3) #10
  %4 = load ptr, ptr %2, align 8, !tbaa !4
  %5 = getelementptr inbounds nuw %struct.jit_State, ptr %4, i32 0, i32 0
  %6 = getelementptr inbounds nuw %struct.GCtrace, ptr %5, i32 0, i32 8
  %7 = load i32, ptr %6, align 8, !tbaa !50
  store i32 %7, ptr %3, align 4, !tbaa !32
  %8 = load i32, ptr %3, align 4, !tbaa !32
  %9 = load ptr, ptr %2, align 8, !tbaa !4
  %10 = getelementptr inbounds nuw %struct.jit_State, ptr %9, i32 0, i32 28
  %11 = load i32, ptr %10, align 4, !tbaa !29
  %12 = icmp ule i32 %8, %11
  %13 = xor i1 %12, true
  %14 = xor i1 %13, true
  %15 = zext i1 %14 to i32
  %16 = sext i32 %15 to i64
  %17 = call i64 @llvm.expect.i64(i64 %16, i64 0)
  %18 = icmp ne i64 %17, 0
  br i1 %18, label %19, label %21

19:                                               ; preds = %1
  %20 = load ptr, ptr %2, align 8, !tbaa !4
  call void @lj_ir_growbot(ptr noundef %20)
  br label %21

21:                                               ; preds = %19, %1
  %22 = load i32, ptr %3, align 4, !tbaa !32
  %23 = add i32 %22, -1
  store i32 %23, ptr %3, align 4, !tbaa !32
  %24 = load ptr, ptr %2, align 8, !tbaa !4
  %25 = getelementptr inbounds nuw %struct.jit_State, ptr %24, i32 0, i32 0
  %26 = getelementptr inbounds nuw %struct.GCtrace, ptr %25, i32 0, i32 8
  store i32 %23, ptr %26, align 8, !tbaa !50
  %27 = load i32, ptr %3, align 4, !tbaa !32
  call void @llvm.lifetime.end.p0(i64 4, ptr %3) #10
  ret i32 %27
}

; Function Attrs: nounwind uwtable
define hidden i32 @lj_ir_kint(ptr noundef %0, i32 noundef %1) #3 {
  %3 = alloca ptr, align 8
  %4 = alloca i32, align 4
  %5 = alloca ptr, align 8
  %6 = alloca ptr, align 8
  %7 = alloca i32, align 4
  store ptr %0, ptr %3, align 8, !tbaa !4
  store i32 %1, ptr %4, align 4, !tbaa !32
  call void @llvm.lifetime.start.p0(i64 8, ptr %5) #10
  call void @llvm.lifetime.start.p0(i64 8, ptr %6) #10
  %8 = load ptr, ptr %3, align 8, !tbaa !4
  %9 = getelementptr inbounds nuw %struct.jit_State, ptr %8, i32 0, i32 0
  %10 = getelementptr inbounds nuw %struct.GCtrace, ptr %9, i32 0, i32 7
  %11 = load ptr, ptr %10, align 8, !tbaa !34
  store ptr %11, ptr %6, align 8, !tbaa !30
  call void @llvm.lifetime.start.p0(i64 4, ptr %7) #10
  %12 = load ptr, ptr %3, align 8, !tbaa !4
  %13 = getelementptr inbounds nuw %struct.jit_State, ptr %12, i32 0, i32 40
  %14 = getelementptr inbounds [101 x i16], ptr %13, i64 0, i64 23
  %15 = load i16, ptr %14, align 2, !tbaa !36
  %16 = zext i16 %15 to i32
  store i32 %16, ptr %7, align 4, !tbaa !32
  br label %17

17:                                               ; preds = %30, %2
  %18 = load i32, ptr %7, align 4, !tbaa !32
  %19 = icmp ne i32 %18, 0
  br i1 %19, label %20, label %38

20:                                               ; preds = %17
  %21 = load ptr, ptr %6, align 8, !tbaa !30
  %22 = load i32, ptr %7, align 4, !tbaa !32
  %23 = zext i32 %22 to i64
  %24 = getelementptr inbounds nuw %union.IRIns, ptr %21, i64 %23
  %25 = load i32, ptr %24, align 8, !tbaa !35
  %26 = load i32, ptr %4, align 4, !tbaa !32
  %27 = icmp eq i32 %25, %26
  br i1 %27, label %28, label %29

28:                                               ; preds = %20
  br label %66

29:                                               ; preds = %20
  br label %30

30:                                               ; preds = %29
  %31 = load ptr, ptr %6, align 8, !tbaa !30
  %32 = load i32, ptr %7, align 4, !tbaa !32
  %33 = zext i32 %32 to i64
  %34 = getelementptr inbounds nuw %union.IRIns, ptr %31, i64 %33
  %35 = getelementptr inbounds nuw %struct.anon, ptr %34, i32 0, i32 3
  %36 = load i16, ptr %35, align 2, !tbaa !35
  %37 = zext i16 %36 to i32
  store i32 %37, ptr %7, align 4, !tbaa !32
  br label %17, !llvm.loop !49

38:                                               ; preds = %17
  %39 = load ptr, ptr %3, align 8, !tbaa !4
  %40 = call i32 @ir_nextk(ptr noundef %39)
  store i32 %40, ptr %7, align 4, !tbaa !32
  %41 = load ptr, ptr %3, align 8, !tbaa !4
  %42 = getelementptr inbounds nuw %struct.jit_State, ptr %41, i32 0, i32 0
  %43 = getelementptr inbounds nuw %struct.GCtrace, ptr %42, i32 0, i32 7
  %44 = load ptr, ptr %43, align 8, !tbaa !34
  %45 = load i32, ptr %7, align 4, !tbaa !32
  %46 = zext i32 %45 to i64
  %47 = getelementptr inbounds nuw %union.IRIns, ptr %44, i64 %46
  store ptr %47, ptr %5, align 8, !tbaa !30
  %48 = load i32, ptr %4, align 4, !tbaa !32
  %49 = load ptr, ptr %5, align 8, !tbaa !30
  store i32 %48, ptr %49, align 8, !tbaa !35
  %50 = load ptr, ptr %5, align 8, !tbaa !30
  %51 = getelementptr inbounds nuw %struct.anon.0, ptr %50, i32 0, i32 1
  %52 = getelementptr inbounds nuw %struct.IRType1, ptr %51, i32 0, i32 0
  store i8 19, ptr %52, align 4, !tbaa !35
  %53 = load ptr, ptr %5, align 8, !tbaa !30
  %54 = getelementptr inbounds nuw %struct.anon.0, ptr %53, i32 0, i32 2
  store i8 23, ptr %54, align 1, !tbaa !35
  %55 = load ptr, ptr %3, align 8, !tbaa !4
  %56 = getelementptr inbounds nuw %struct.jit_State, ptr %55, i32 0, i32 40
  %57 = getelementptr inbounds [101 x i16], ptr %56, i64 0, i64 23
  %58 = load i16, ptr %57, align 2, !tbaa !36
  %59 = load ptr, ptr %5, align 8, !tbaa !30
  %60 = getelementptr inbounds nuw %struct.anon, ptr %59, i32 0, i32 3
  store i16 %58, ptr %60, align 2, !tbaa !35
  %61 = load i32, ptr %7, align 4, !tbaa !32
  %62 = trunc i32 %61 to i16
  %63 = load ptr, ptr %3, align 8, !tbaa !4
  %64 = getelementptr inbounds nuw %struct.jit_State, ptr %63, i32 0, i32 40
  %65 = getelementptr inbounds [101 x i16], ptr %64, i64 0, i64 23
  store i16 %62, ptr %65, align 2, !tbaa !36
  br label %66

66:                                               ; preds = %38, %28
  %67 = load i32, ptr %7, align 4, !tbaa !32
  %68 = add i32 %67, 318767104
  call void @llvm.lifetime.end.p0(i64 4, ptr %7) #10
  call void @llvm.lifetime.end.p0(i64 8, ptr %6) #10
  call void @llvm.lifetime.end.p0(i64 8, ptr %5) #10
  ret i32 %68
}