; Function Attrs: nounwind uwtable
define hidden i32 @lj_ir_kint(ptr noundef captures(none) %0, i32 noundef %1) local_unnamed_addr #6 {
  %3 = getelementptr inbounds nuw i8, ptr %0, i64 32
  %4 = load ptr, ptr %3, align 8, !tbaa !30
  %5 = getelementptr inbounds nuw i8, ptr %0, i64 448
  %.0.in19 = load i16, ptr %5, align 2, !tbaa !33
  %.not20 = icmp eq i16 %.0.in19, 0
  br i1 %.not20, label %._crit_edge, label %.lr.ph

6:                                                ; preds = %.lr.ph
  %7 = getelementptr inbounds nuw i8, ptr %9, i64 6
  %.0.in = load i16, ptr %7, align 2, !tbaa !33
  %.not = icmp eq i16 %.0.in, 0
  br i1 %.not, label %._crit_edge, label %.lr.ph, !llvm.loop !42

.lr.ph:                                           ; preds = %2, %6
  %.0.in21 = phi i16 [ %.0.in, %6 ], [ %.0.in19, %2 ]
  %8 = zext i16 %.0.in21 to i64
  %9 = getelementptr inbounds nuw %union.IRIns, ptr %4, i64 %8
  %10 = load i32, ptr %9, align 8, !tbaa !33
  %11 = icmp eq i32 %10, %1
  br i1 %11, label %.loopexit, label %6

._crit_edge:                                      ; preds = %6, %2
  %12 = getelementptr inbounds nuw i8, ptr %0, i64 40
  %13 = load i32, ptr %12, align 8, !tbaa !43
  %14 = getelementptr inbounds nuw i8, ptr %0, i64 340
  %15 = load i32, ptr %14, align 4, !tbaa !4
  %.not.i = icmp ugt i32 %13, %15
  br i1 %.not.i, label %ir_nextk.exit, label %16, !prof !32

16:                                               ; preds = %._crit_edge
  tail call fastcc void @lj_ir_growbot(ptr noundef nonnull %0)
  %.pre = load ptr, ptr %3, align 8, !tbaa !30
  br label %ir_nextk.exit

ir_nextk.exit:                                    ; preds = %._crit_edge, %16
  %17 = phi ptr [ %4, %._crit_edge ], [ %.pre, %16 ]
  %18 = add i32 %13, -1
  store i32 %18, ptr %12, align 8, !tbaa !43
  %19 = zext i32 %18 to i64
  %20 = getelementptr inbounds nuw %union.IRIns, ptr %17, i64 %19
  store i32 %1, ptr %20, align 8, !tbaa !33
  %21 = getelementptr inbounds nuw i8, ptr %20, i64 4
  store i8 19, ptr %21, align 4, !tbaa !33
  %22 = getelementptr inbounds nuw i8, ptr %20, i64 5
  store i8 23, ptr %22, align 1, !tbaa !33
  %23 = load i16, ptr %5, align 2, !tbaa !34
  %24 = getelementptr inbounds nuw i8, ptr %20, i64 6
  store i16 %23, ptr %24, align 2, !tbaa !33
  %25 = trunc i32 %18 to i16
  store i16 %25, ptr %5, align 2, !tbaa !34
  br label %26

.loopexit:                                        ; preds = %.lr.ph
  %.0.le = zext i16 %.0.in21 to i32
  br label %26

26:                                               ; preds = %.loopexit, %ir_nextk.exit
  %.1 = phi i32 [ %18, %ir_nextk.exit ], [ %.0.le, %.loopexit ]
  %27 = add i32 %.1, 318767104
  ret i32 %27
}